target datalayout = "e-m:e-p270:32:32-p271:32:32-p272:64:64-i64:64-i128:128-f80:128-n8:16:32:64-S128"
target triple = "x86_64-pc-linux-gnu"

%struct._zval_struct = type { %union._zend_value, %union.anon.3, %union.anon.6 }
%union._zend_value = type { i64 }
%union.anon.3 = type { i32 }
%union.anon.6 = type { i32 }
%struct._zend_array = type { %struct._zend_refcounted_h, %union.anon.0, i32, %union.anon.1, i32, i32, i32, i32, i64, ptr }
%struct._zend_refcounted_h = type { i32, %union.anon }
%union.anon = type { i32 }
%union.anon.0 = type { i32 }
%union.anon.1 = type { ptr }
%struct._zend_object_handlers = type { i32, ptr, ptr, ptr, ptr, ptr, ptr, ptr, ptr, ptr, ptr, ptr, ptr, ptr, ptr, ptr, ptr, ptr, ptr, ptr, ptr, ptr, ptr, ptr, ptr }
%struct._spl_SplObjectStorage = type { %struct._zend_array, i64, i32, i64, ptr, %struct._zend_object }
%struct._zend_object = type { %struct._zend_refcounted_h, i32, ptr, ptr, ptr, [1 x %struct._zval_struct] }

@spl_ce_SplObjectStorage = global ptr null, align 8

; Function Attrs: nounwind uwtable
define internal ptr @spl_object_storage_from_obj(ptr noundef %0) #0 {
  %2 = alloca ptr, align 8
  store ptr %0, ptr %2, align 8
  %3 = load ptr, ptr %2, align 8
  %4 = getelementptr inbounds i8, ptr %3, i64 -88
  ret ptr %4
}

; Function Attrs: nounwind uwtable
define internal i32 @spl_object_storage_compare_objects(ptr noundef %0, ptr noundef %1) #0 {
  %3 = alloca ptr, align 8
  %4 = alloca ptr, align 8
  %5 = alloca i32, align 4
  %6 = alloca ptr, align 8
  %7 = alloca ptr, align 8
  %8 = alloca ptr, align 8
  %9 = alloca ptr, align 8
  store ptr %0, ptr %6, align 8
  store ptr %1, ptr %7, align 8
  %10 = load ptr, ptr %6, align 8
  store ptr %10, ptr %3, align 8
  %11 = load ptr, ptr %3, align 8
  %12 = getelementptr inbounds %struct._zval_struct, ptr %11, i32 0, i32 1
  %13 = load i8, ptr %12, align 8
  %14 = zext i8 %13 to i32
  %15 = icmp ne i32 %14, 8
  br i1 %15, label %39, label %16

16:                                               ; preds = %2
  %17 = load ptr, ptr %7, align 8
  store ptr %17, ptr %4, align 8
  %18 = load ptr, ptr %4, align 8
  %19 = getelementptr inbounds %struct._zval_struct, ptr %18, i32 0, i32 1
  %20 = load i8, ptr %19, align 8
  %21 = zext i8 %20 to i32
  %22 = icmp ne i32 %21, 8
  br i1 %22, label %39, label %23

23:                                               ; preds = %16
  %24 = load ptr, ptr %6, align 8
  %25 = getelementptr inbounds %struct._zval_struct, ptr %24, i32 0, i32 0
  %26 = load ptr, ptr %25, align 8
  %27 = getelementptr inbounds %struct._zend_object, ptr %26, i32 0, i32 3
  %28 = load ptr, ptr %27, align 8
  %29 = getelementptr inbounds %struct._zend_object_handlers, ptr %28, i32 0, i32 23
  %30 = load ptr, ptr %29, align 8
  %31 = load ptr, ptr %7, align 8
  %32 = getelementptr inbounds %struct._zval_struct, ptr %31, i32 0, i32 0
  %33 = load ptr, ptr %32, align 8
  %34 = getelementptr inbounds %struct._zend_object, ptr %33, i32 0, i32 3
  %35 = load ptr, ptr %34, align 8
  %36 = getelementptr inbounds %struct._zend_object_handlers, ptr %35, i32 0, i32 23
  %37 = load ptr, ptr %36, align 8
  %38 = icmp ne ptr %30, %37
  br i1 %38, label %39, label %43

39:                                               ; preds = %23, %16, %2
  %40 = load ptr, ptr %6, align 8
  %41 = load ptr, ptr %7, align 8
  %42 = call i32 @zend_std_compare_objects(ptr noundef %40, ptr noundef %41)
  store i32 %42, ptr %5, align 4
  br label %74

43:                                               ; preds = %23
  %44 = load ptr, ptr %6, align 8
  %45 = getelementptr inbounds %struct._zval_struct, ptr %44, i32 0, i32 0
  %46 = load ptr, ptr %45, align 8
  store ptr %46, ptr %8, align 8
  %47 = load ptr, ptr %7, align 8
  %48 = getelementptr inbounds %struct._zval_struct, ptr %47, i32 0, i32 0
  %49 = load ptr, ptr %48, align 8
  store ptr %49, ptr %9, align 8
  %50 = load ptr, ptr %8, align 8
  %51 = getelementptr inbounds %struct._zend_object, ptr %50, i32 0, i32 2
  %52 = load ptr, ptr %51, align 8
  %53 = load ptr, ptr @spl_ce_SplObjectStorage, align 8
  %54 = icmp ne ptr %52, %53
  br i1 %54, label %61, label %55

55:                                               ; preds = %43
  %56 = load ptr, ptr %9, align 8
  %57 = getelementptr inbounds %struct._zend_object, ptr %56, i32 0, i32 2
  %58 = load ptr, ptr %57, align 8
  %59 = load ptr, ptr @spl_ce_SplObjectStorage, align 8
  %60 = icmp ne ptr %58, %59
  br i1 %60, label %61, label %62

61:                                               ; preds = %55, %43
  store i32 1, ptr %5, align 4
  br label %74

62:                                               ; preds = %55
  %63 = load ptr, ptr %6, align 8
  %64 = getelementptr inbounds %struct._zval_struct, ptr %63, i32 0, i32 0
  %65 = load ptr, ptr %64, align 8
  %66 = call ptr @spl_object_storage_from_obj(ptr noundef %65)
  %67 = getelementptr inbounds %struct._spl_SplObjectStorage, ptr %66, i32 0, i32 0
  %68 = load ptr, ptr %7, align 8
  %69 = getelementptr inbounds %struct._zval_struct, ptr %68, i32 0, i32 0
  %70 = load ptr, ptr %69, align 8
  %71 = call ptr @spl_object_storage_from_obj(ptr noundef %70)
  %72 = getelementptr inbounds %struct._spl_SplObjectStorage, ptr %71, i32 0, i32 0
  %73 = call i32 @zend_hash_compare(ptr noundef %67, ptr noundef %72, ptr noundef @spl_object_storage_compare_info, i1 noundef zeroext false)
  store i32 %73, ptr %5, align 4
  br label %74

74:                                               ; preds = %62, %61, %39
  %75 = load i32, ptr %5, align 4
  ret i32 %75
}