; Function Attrs: nounwind uwtable
define internal i32 @spl_object_storage_compare_objects(ptr noundef %0, ptr noundef %1) #0 {
  %3 = getelementptr inbounds i8, ptr %0, i64 8
  %4 = load i8, ptr %3, align 8
  %.not = icmp eq i8 %4, 8
  br i1 %.not, label %5, label %19

5:                                                ; preds = %2
  %6 = getelementptr inbounds i8, ptr %1, i64 8
  %7 = load i8, ptr %6, align 8
  %.not15 = icmp eq i8 %7, 8
  br i1 %.not15, label %8, label %19

8:                                                ; preds = %5
  %9 = load ptr, ptr %0, align 8
  %10 = getelementptr inbounds i8, ptr %9, i64 24
  %11 = load ptr, ptr %10, align 8
  %12 = getelementptr inbounds i8, ptr %11, i64 184
  %13 = load ptr, ptr %12, align 8
  %14 = load ptr, ptr %1, align 8
  %15 = getelementptr inbounds i8, ptr %14, i64 24
  %16 = load ptr, ptr %15, align 8
  %17 = getelementptr inbounds i8, ptr %16, i64 184
  %18 = load ptr, ptr %17, align 8
  %.not16 = icmp eq ptr %13, %18
  br i1 %.not16, label %21, label %19

19:                                               ; preds = %8, %5, %2
  %20 = tail call i32 @zend_std_compare_objects(ptr noundef nonnull %0, ptr noundef %1) #10
  br label %32

21:                                               ; preds = %8
  %22 = getelementptr inbounds i8, ptr %9, i64 16
  %23 = load ptr, ptr %22, align 8
  %24 = load ptr, ptr @spl_ce_SplObjectStorage, align 8
  %.not17 = icmp eq ptr %23, %24
  br i1 %.not17, label %25, label %32

25:                                               ; preds = %21
  %26 = getelementptr inbounds i8, ptr %14, i64 16
  %27 = load ptr, ptr %26, align 8
  %.not18 = icmp eq ptr %27, %23
  br i1 %.not18, label %28, label %32

28:                                               ; preds = %25
  %29 = getelementptr inbounds i8, ptr %9, i64 -88
  %30 = getelementptr inbounds i8, ptr %14, i64 -88
  %31 = tail call i32 @zend_hash_compare(ptr noundef nonnull %29, ptr noundef nonnull %30, ptr noundef nonnull @spl_object_storage_compare_info, i1 noundef zeroext false) #10
  br label %32

32:                                               ; preds = %21, %25, %28, %19
  %.0 = phi i32 [ %20, %19 ], [ %31, %28 ], [ 1, %25 ], [ 1, %21 ]
  ret i32 %.0
}